target datalayout = "e-m:e-p270:32:32-p271:32:32-p272:64:64-i64:64-i128:128-f80:128-n8:16:32:64-S128"
target triple = "x86_64-pc-linux-gnu"

%class.LibRaw = type { ptr, %struct.libraw_data_t, ptr, %struct.libraw_internal_data_t, [2048 x %struct.decode], ptr, ptr, [10 x %struct.tiff_ifd_t], %class.libraw_memmgr, %struct.libraw_callbacks_t, { i64, i64 }, { i64, i64 }, { i64, i64 }, ptr, ptr, ptr, i64, ptr, ptr, ptr, ptr }
%struct.libraw_data_t = type { ptr, %struct.libraw_image_sizes_t, %struct.libraw_iparams_t, %struct.libraw_lensinfo_t, %struct.libraw_makernotes_t, %struct.libraw_shootinginfo_t, %struct.libraw_output_params_t, %struct.libraw_raw_unpack_params_t, i32, i32, %struct.libraw_colordata_t, %struct.libraw_imgother_t, %struct.libraw_thumbnail_t, %struct.libraw_thumbnail_list_t, %struct.libraw_rawdata_t, ptr }
%struct.libraw_image_sizes_t = type { i16, i16, i16, i16, i16, i16, i16, i16, i32, double, i32, [8 x [4 x i32]], i16, [2 x %struct.libraw_raw_inset_crop_t] }
%struct.libraw_raw_inset_crop_t = type { i16, i16, i16, i16 }
%struct.libraw_iparams_t = type { [4 x i8], [64 x i8], [64 x i8], [64 x i8], [64 x i8], [64 x i8], i32, i32, i32, i32, i32, i32, [6 x [6 x i8]], [6 x [6 x i8]], [5 x i8], i32, ptr }
%struct.libraw_lensinfo_t = type { float, float, float, float, float, [128 x i8], [128 x i8], [128 x i8], [128 x i8], i16, %struct.libraw_nikonlens_t, %struct.libraw_dnglens_t, %struct.libraw_makernotes_lens_t }
%struct.libraw_nikonlens_t = type { float, i8, i8, i8, i8 }
%struct.libraw_dnglens_t = type { float, float, float, float }
%struct.libraw_makernotes_lens_t = type { i64, [128 x i8], i16, i16, i64, i16, i16, [64 x i8], i16, [16 x i8], [16 x i8], float, float, float, float, float, float, float, float, float, float, float, float, float, float, float, i64, [128 x i8], i64, [128 x i8], i64, [128 x i8], i16, float }
%struct.libraw_makernotes_t = type { %struct.libraw_canon_makernotes_t, %struct.libraw_nikon_makernotes_t, %struct.libraw_hasselblad_makernotes_t, %struct.libraw_fuji_info_t, %struct.libraw_olympus_makernotes_t, %struct.libraw_sony_info_t, %struct.libraw_kodak_makernotes_t, %struct.libraw_panasonic_makernotes_t, %struct.libraw_pentax_makernotes_t, %struct.libraw_p1_makernotes_t, %struct.libraw_ricoh_makernotes_t, %struct.libraw_samsung_makernotes_t, %struct.libraw_metadata_common_t }
%struct.libraw_canon_makernotes_t = type { i32, i32, i32, i32, [4 x i32], i32, [4 x i32], i16, i16, i8, i16, i16, i16, i16, i16, i16, i16, i16, i16, i16, i16, i16, i16, i32, float, i16, i16, i16, i32, i16, i32, i32, i16, i32, %struct.libraw_area_t, %struct.libraw_area_t, %struct.libraw_area_t, %struct.libraw_area_t, %struct.libraw_area_t, [2 x i16] }
%struct.libraw_area_t = type { i16, i16, i16, i16 }
%struct.libraw_nikon_makernotes_t = type { double, i16, i16, [7 x i8], i8, i8, [13 x i8], [20 x i8], [4 x i8], [4 x i8], [4 x i8], i8, i8, i8, i8, i8, [2 x i8], i8, i8, i8, i8, i8, [4 x i8], [4 x i8], i8, i16, i32, i32, i32, i32, [4 x double], i8, i8, i8, i32, i32, i32, i8, [4 x i16], i16, %struct.libraw_sensor_highspeed_crop_t, i16, i16, i16, i32, [20 x i8], [20 x i8], i32, i16, double, double, double }
%struct.libraw_sensor_highspeed_crop_t = type { i16, i16, i16, i16 }
%struct.libraw_hasselblad_makernotes_t = type { i32, double, [8 x i8], [64 x i8], [64 x i8], i32, i32, i32, i32, [32 x i8], [64 x i8], i32, [2 x i32], [2 x i32], [4 x [3 x double]] }
%struct.libraw_fuji_info_t = type { float, i16, i16, i16, i16, i16, i16, i16, i16, [33 x i8], [33 x i8], float, i16, i16, [2 x i16], i16, i32, i32, i16, [3 x i16], i16, i16, i16, i16, i16, i32, i16, [13 x i8], [5 x i8], [5 x i8], i32, i16, i32, i16, [9 x i16], [32 x i32], i32, i32, i32, [2 x float], i32 }
%struct.libraw_olympus_makernotes_t = type { [6 x i8], i16, [2 x i32], [5 x i16], i16, [2 x i16], i16, i16, [64 x i32], [5 x double], i16, i8, [3 x i16], [3 x i32], i16, i16, i16, i16, double, [4 x i16], [2 x i32], i8, i32, i16, i16 }
%struct.libraw_sony_info_t = type { i16, i8, i8, i32, i8, i32, i8, i8, i16, [2 x i16], i8, i8, i16, [10 x i8], i8, i8, [4 x i16], i16, i8, i8, i8, i16, i32, i16, [2 x i16], i16, i16, i16, i16, i16, i16, i16, i32, float, i16, i32, i32, i16, [20 x i8], i32, i16, i32, i8, i8, i16, i16, i16, i16, i16, i16, i16, i16, i16, i32, i16, [16 x i8], float }
%struct.libraw_kodak_makernotes_t = type { i16, i16, i16, i16, i16, i16, [3 x [3 x float]], [3 x [3 x float]], [3 x [3 x float]], [3 x [3 x float]], [3 x [3 x float]], [3 x [3 x float]], i16, i16, i16, i16, float, float }
%struct.libraw_panasonic_makernotes_t = type { i16, i16, [8 x float], i32, float, [3 x i32], i16, i16, i32, i32 }
%struct.libraw_pentax_makernotes_t = type { [4 x i8], [2 x i16], [2 x i16], i16, i32, i32, i16, i16, i8, i8, i16 }
%struct.libraw_p1_makernotes_t = type { [64 x i8], [64 x i8], [256 x i8], [64 x i8] }
%struct.libraw_ricoh_makernotes_t = type { i16, [2 x i32], [2 x i32], i16, i32, i32, i32, i32, i16, i16, i16, i16, i16, i16, double, double }
%struct.libraw_samsung_makernotes_t = type { [4 x i32], [4 x i32], [2 x i32], [11 x i32], double, i32, [32 x i8] }
%struct.libraw_metadata_common_t = type { float, float, float, float, float, float, float, float, float, float, float, float, float, float, float, float, i16, [128 x i8], float, [4 x %struct.libraw_afinfo_item_t], i32 }
%struct.libraw_afinfo_item_t = type { i32, i16, i32, i32, ptr }
%struct.libraw_shootinginfo_t = type { i16, i16, i16, i16, i16, i16, i16, [64 x i8], [64 x i8] }
%struct.libraw_output_params_t = type { [4 x i32], [4 x i32], [4 x double], [6 x double], [4 x float], float, float, i32, i32, i32, i32, i32, i32, i32, ptr, ptr, ptr, ptr, i32, i32, i32, i32, i32, i32, [4 x i32], i32, i32, float, float, i32, i32, i32, i32, i32, i32, i32, i32, float, float, i32, i32 }
%struct.libraw_raw_unpack_params_t = type { i32, i32, i32, i32, i32, i32, i32, float, [5 x i8], ptr }
%struct.libraw_colordata_t = type { [65536 x i16], [4104 x i32], i32, i32, i32, [4 x i64], float, float, [8 x [8 x i16]], [4 x float], [4 x float], [3 x [4 x float]], [3 x [4 x float]], [3 x [4 x float]], [4 x [3 x float]], %struct.ph1_t, float, float, [64 x i8], [64 x i8], [64 x i8], [64 x i8], [17 x i8], [64 x i8], ptr, i32, [8 x i32], [2 x %struct.libraw_dng_color_t], %struct.libraw_dng_levels_t, [256 x [4 x i32]], [64 x [5 x float]], i32, [2 x %struct.libraw_P1_color_t], i32, i32 }
%struct.ph1_t = type { i32, i32, i32, i32, i32, i32, i32, i32, float }
%struct.libraw_dng_color_t = type { i32, i16, [4 x [4 x float]], [4 x [3 x float]], [3 x [4 x float]] }
%struct.libraw_dng_levels_t = type { i32, [4104 x i32], i32, [4104 x float], float, [4 x i32], [4 x i16], [4 x float], i32, [4 x float], [4 x float], float, float }
%struct.libraw_P1_color_t = type { [9 x float] }
%struct.libraw_imgother_t = type { float, float, float, float, i64, i32, [32 x i32], %struct.libraw_gps_info_t, [512 x i8], [64 x i8], [4 x float] }
%struct.libraw_gps_info_t = type { [3 x float], [3 x float], [3 x float], float, i8, i8, i8, i8, i8 }
%struct.libraw_thumbnail_t = type { i32, i16, i16, i32, i32, ptr }
%struct.libraw_thumbnail_list_t = type { i32, [8 x %struct.libraw_thumbnail_item_t] }
%struct.libraw_thumbnail_item_t = type { i32, i16, i16, i16, i32, i32, i64 }
%struct.libraw_rawdata_t = type { ptr, ptr, ptr, ptr, ptr, ptr, ptr, ptr, ptr, %struct.libraw_iparams_t, %struct.libraw_image_sizes_t, %struct.libraw_internal_output_params_t, %struct.libraw_colordata_t }
%struct.libraw_internal_output_params_t = type { i32, i32, i32, i16, i16 }
%struct.libraw_internal_data_t = type { %struct.internal_data_t, %struct.libraw_internal_output_params_t, %struct.output_data_t, %struct.identify_data_t, %struct.unpacker_data_t }
%struct.internal_data_t = type { ptr, ptr, i32, ptr, i64, i64, [4 x i32] }
%struct.output_data_t = type { ptr, ptr }
%struct.identify_data_t = type { i32, i64, i64, i32, i32, i32 }
%struct.unpacker_data_t = type { i16, [4 x i16], [3 x i16], i32, i64, i64, i64, i64, i64, i64, i32, i32, i32, i32, i32, i32, i32, i32, i32, i32, i32, i32, i32, i32, i32, i32, i32, i64, i32, i32, i32, i32, i32, i32, i32, i32, i32, %struct.pana8_tags_t, [16 x %struct.crx_data_header_t], i32, i32, i16, i16, i32, i32, i32, i32, i32, i32, i32, [20 x i32], i16 }
%struct.pana8_tags_t = type { [6 x i32], [6 x i16], i16, [4 x i16], [17 x i16], [17 x i16], [17 x i16], i16, i16, [5 x i64], [5 x i16], [5 x i32], [5 x i16], [5 x i16] }
%struct.crx_data_header_t = type { i32, i32, i32, i32, i32, i32, i32, i32, i32, i32, i32, i32, i32, i32, i32, i64, i32, ptr, i32, i32, i32, ptr, i32, ptr }
%struct.decode = type { [2 x ptr], i32 }
%struct.tiff_ifd_t = type { i32, i32, i32, i32, i32, i32, i32, i32, i32, i32, i32, i32, i32, i32, i32, ptr, i32, ptr, i32, i32, i32, i32, i32, i32, i32, float, i64, i64, i32, [2 x %struct.libraw_dng_color_t], %struct.libraw_dng_levels_t, i32 }
%class.libraw_memmgr = type <{ ptr, i32, [4 x i8] }>
%struct.libraw_callbacks_t = type { ptr, ptr, ptr, ptr, ptr, ptr, ptr, ptr, ptr, ptr, ptr, ptr, ptr, ptr, ptr, ptr, ptr }

; Function Attrs: mustprogress uwtable
define noundef i32 @_ZN6LibRaw15unpack_thumb_exEi(ptr noundef nonnull align 8 dereferenceable(767680) %0, i32 noundef %1) #0 align 2 {
  %3 = alloca i32, align 4
  %4 = alloca ptr, align 8
  %5 = alloca i32, align 4
  %6 = alloca i32, align 4
  store ptr %0, ptr %4, align 8, !tbaa !6
  store i32 %1, ptr %5, align 4, !tbaa !11
  %7 = load ptr, ptr %4, align 8
  %8 = load i32, ptr %5, align 4, !tbaa !11
  %9 = icmp slt i32 %8, 0
  br i1 %9, label %20, label %10

10:                                               ; preds = %2
  %11 = load i32, ptr %5, align 4, !tbaa !11
  %12 = getelementptr inbounds nuw %class.LibRaw, ptr %7, i32 0, i32 1
  %13 = getelementptr inbounds nuw %struct.libraw_data_t, ptr %12, i32 0, i32 13
  %14 = getelementptr inbounds nuw %struct.libraw_thumbnail_list_t, ptr %13, i32 0, i32 0
  %15 = load i32, ptr %14, align 8, !tbaa !13
  %16 = icmp sge i32 %11, %15
  br i1 %16, label %20, label %17

17:                                               ; preds = %10
  %18 = load i32, ptr %5, align 4, !tbaa !11
  %19 = icmp sge i32 %18, 8
  br i1 %19, label %20, label %21

20:                                               ; preds = %17, %10, %2
  store i32 -9, ptr %3, align 4
  br label %94

21:                                               ; preds = %17
  %22 = getelementptr inbounds nuw %class.LibRaw, ptr %7, i32 0, i32 1
  %23 = getelementptr inbounds nuw %struct.libraw_data_t, ptr %22, i32 0, i32 13
  %24 = getelementptr inbounds nuw %struct.libraw_thumbnail_list_t, ptr %23, i32 0, i32 1
  %25 = load i32, ptr %5, align 4, !tbaa !11
  %26 = sext i32 %25 to i64
  %27 = getelementptr inbounds [8 x %struct.libraw_thumbnail_item_t], ptr %24, i64 0, i64 %26
  %28 = getelementptr inbounds nuw %struct.libraw_thumbnail_item_t, ptr %27, i32 0, i32 6
  %29 = load i64, ptr %28, align 8, !tbaa !74
  %30 = getelementptr inbounds nuw %class.LibRaw, ptr %7, i32 0, i32 3
  %31 = getelementptr inbounds nuw %struct.libraw_internal_data_t, ptr %30, i32 0, i32 0
  %32 = getelementptr inbounds nuw %struct.internal_data_t, ptr %31, i32 0, i32 5
  store i64 %29, ptr %32, align 8, !tbaa !76
  %33 = getelementptr inbounds nuw %class.LibRaw, ptr %7, i32 0, i32 1
  %34 = getelementptr inbounds nuw %struct.libraw_data_t, ptr %33, i32 0, i32 13
  %35 = getelementptr inbounds nuw %struct.libraw_thumbnail_list_t, ptr %34, i32 0, i32 1
  %36 = load i32, ptr %5, align 4, !tbaa !11
  %37 = sext i32 %36 to i64
  %38 = getelementptr inbounds [8 x %struct.libraw_thumbnail_item_t], ptr %35, i64 0, i64 %37
  %39 = getelementptr inbounds nuw %struct.libraw_thumbnail_item_t, ptr %38, i32 0, i32 4
  %40 = load i32, ptr %39, align 4, !tbaa !77
  %41 = getelementptr inbounds nuw %class.LibRaw, ptr %7, i32 0, i32 1
  %42 = getelementptr inbounds nuw %struct.libraw_data_t, ptr %41, i32 0, i32 12
  %43 = getelementptr inbounds nuw %struct.libraw_thumbnail_t, ptr %42, i32 0, i32 3
  store i32 %40, ptr %43, align 8, !tbaa !78
  %44 = getelementptr inbounds nuw %class.LibRaw, ptr %7, i32 0, i32 1
  %45 = getelementptr inbounds nuw %struct.libraw_data_t, ptr %44, i32 0, i32 13
  %46 = getelementptr inbounds nuw %struct.libraw_thumbnail_list_t, ptr %45, i32 0, i32 1
  %47 = load i32, ptr %5, align 4, !tbaa !11
  %48 = sext i32 %47 to i64
  %49 = getelementptr inbounds [8 x %struct.libraw_thumbnail_item_t], ptr %46, i64 0, i64 %48
  %50 = getelementptr inbounds nuw %struct.libraw_thumbnail_item_t, ptr %49, i32 0, i32 0
  %51 = load i32, ptr %50, align 8, !tbaa !79
  %52 = getelementptr inbounds nuw %class.LibRaw, ptr %7, i32 0, i32 3
  %53 = getelementptr inbounds nuw %struct.libraw_internal_data_t, ptr %52, i32 0, i32 4
  %54 = getelementptr inbounds nuw %struct.unpacker_data_t, ptr %53, i32 0, i32 15
  store i32 %51, ptr %54, align 4, !tbaa !80
  %55 = getelementptr inbounds nuw %class.LibRaw, ptr %7, i32 0, i32 1
  %56 = getelementptr inbounds nuw %struct.libraw_data_t, ptr %55, i32 0, i32 13
  %57 = getelementptr inbounds nuw %struct.libraw_thumbnail_list_t, ptr %56, i32 0, i32 1
  %58 = load i32, ptr %5, align 4, !tbaa !11
  %59 = sext i32 %58 to i64
  %60 = getelementptr inbounds [8 x %struct.libraw_thumbnail_item_t], ptr %57, i64 0, i64 %59
  %61 = getelementptr inbounds nuw %struct.libraw_thumbnail_item_t, ptr %60, i32 0, i32 1
  %62 = load i16, ptr %61, align 4, !tbaa !81
  %63 = getelementptr inbounds nuw %class.LibRaw, ptr %7, i32 0, i32 1
  %64 = getelementptr inbounds nuw %struct.libraw_data_t, ptr %63, i32 0, i32 12
  %65 = getelementptr inbounds nuw %struct.libraw_thumbnail_t, ptr %64, i32 0, i32 1
  store i16 %62, ptr %65, align 4, !tbaa !82
  %66 = getelementptr inbounds nuw %class.LibRaw, ptr %7, i32 0, i32 1
  %67 = getelementptr inbounds nuw %struct.libraw_data_t, ptr %66, i32 0, i32 13
  %68 = getelementptr inbounds nuw %struct.libraw_thumbnail_list_t, ptr %67, i32 0, i32 1
  %69 = load i32, ptr %5, align 4, !tbaa !11
  %70 = sext i32 %69 to i64
  %71 = getelementptr inbounds [8 x %struct.libraw_thumbnail_item_t], ptr %68, i64 0, i64 %70
  %72 = getelementptr inbounds nuw %struct.libraw_thumbnail_item_t, ptr %71, i32 0, i32 2
  %73 = load i16, ptr %72, align 2, !tbaa !83
  %74 = getelementptr inbounds nuw %class.LibRaw, ptr %7, i32 0, i32 1
  %75 = getelementptr inbounds nuw %struct.libraw_data_t, ptr %74, i32 0, i32 12
  %76 = getelementptr inbounds nuw %struct.libraw_thumbnail_t, ptr %75, i32 0, i32 2
  store i16 %73, ptr %76, align 2, !tbaa !84
  %77 = getelementptr inbounds nuw %class.LibRaw, ptr %7, i32 0, i32 1
  %78 = getelementptr inbounds nuw %struct.libraw_data_t, ptr %77, i32 0, i32 13
  %79 = getelementptr inbounds nuw %struct.libraw_thumbnail_list_t, ptr %78, i32 0, i32 1
  %80 = load i32, ptr %5, align 4, !tbaa !11
  %81 = sext i32 %80 to i64
  %82 = getelementptr inbounds [8 x %struct.libraw_thumbnail_item_t], ptr %79, i64 0, i64 %81
  %83 = getelementptr inbounds nuw %struct.libraw_thumbnail_item_t, ptr %82, i32 0, i32 5
  %84 = load i32, ptr %83, align 8, !tbaa !85
  %85 = getelementptr inbounds nuw %class.LibRaw, ptr %7, i32 0, i32 3
  %86 = getelementptr inbounds nuw %struct.libraw_internal_data_t, ptr %85, i32 0, i32 4
  %87 = getelementptr inbounds nuw %struct.unpacker_data_t, ptr %86, i32 0, i32 14
  store i32 %84, ptr %87, align 8, !tbaa !86
  call void @llvm.lifetime.start.p0(i64 4, ptr %6) #10
  %88 = call noundef i32 @_ZN6LibRaw12unpack_thumbEv(ptr noundef nonnull align 8 dereferenceable(767680) %7)
  store i32 %88, ptr %6, align 4, !tbaa !11
  %89 = getelementptr inbounds nuw %class.LibRaw, ptr %7, i32 0, i32 1
  %90 = getelementptr inbounds nuw %struct.libraw_data_t, ptr %89, i32 0, i32 8
  %91 = load i32, ptr %90, align 8, !tbaa !87
  %92 = and i32 %91, -268435457
  store i32 %92, ptr %90, align 8, !tbaa !87
  %93 = load i32, ptr %6, align 4, !tbaa !11
  store i32 %93, ptr %3, align 4
  call void @llvm.lifetime.end.p0(i64 4, ptr %6) #10
  br label %94

94:                                               ; preds = %21, %20
  %95 = load i32, ptr %3, align 4
  ret i32 %95
}