; Function Attrs: mustprogress uwtable
define noundef range(i32 -100013, 1) i32 @_ZN6LibRaw15unpack_thumb_exEi(ptr noundef nonnull align 8 dereferenceable(767680) %0, i32 noundef %1) local_unnamed_addr #0 align 2 {
  %3 = icmp slt i32 %1, 0
  br i1 %3, label %34, label %4

4:                                                ; preds = %2
  %5 = getelementptr inbounds nuw i8, ptr %0, i64 193376
  %6 = load i32, ptr %5, align 8, !tbaa !6
  %7 = icmp sge i32 %1, %6
  %8 = icmp samesign ugt i32 %1, 7
  %or.cond = or i1 %8, %7
  br i1 %or.cond, label %34, label %9

9:                                                ; preds = %4
  %10 = getelementptr inbounds nuw i8, ptr %0, i64 193384
  %11 = zext nneg i32 %1 to i64
  %12 = getelementptr inbounds nuw [8 x %struct.libraw_thumbnail_item_t], ptr %10, i64 0, i64 %11
  %13 = getelementptr inbounds nuw i8, ptr %12, i64 24
  %14 = load i64, ptr %13, align 8, !tbaa !71
  %15 = getelementptr inbounds nuw i8, ptr %0, i64 381456
  store i64 %14, ptr %15, align 8, !tbaa !73
  %16 = getelementptr inbounds nuw i8, ptr %12, i64 12
  %17 = load i32, ptr %16, align 4, !tbaa !74
  %18 = getelementptr inbounds nuw i8, ptr %0, i64 193360
  store i32 %17, ptr %18, align 8, !tbaa !75
  %19 = load i32, ptr %12, align 8, !tbaa !76
  %20 = getelementptr inbounds nuw i8, ptr %0, i64 381644
  store i32 %19, ptr %20, align 4, !tbaa !77
  %21 = getelementptr inbounds nuw i8, ptr %12, i64 4
  %22 = load i16, ptr %21, align 4, !tbaa !78
  %23 = getelementptr inbounds nuw i8, ptr %0, i64 193356
  store i16 %22, ptr %23, align 4, !tbaa !79
  %24 = getelementptr inbounds nuw i8, ptr %12, i64 6
  %25 = load i16, ptr %24, align 2, !tbaa !80
  %26 = getelementptr inbounds nuw i8, ptr %0, i64 193358
  store i16 %25, ptr %26, align 2, !tbaa !81
  %27 = getelementptr inbounds nuw i8, ptr %12, i64 16
  %28 = load i32, ptr %27, align 8, !tbaa !82
  %29 = getelementptr inbounds nuw i8, ptr %0, i64 381640
  store i32 %28, ptr %29, align 8, !tbaa !83
  %30 = tail call noundef i32 @_ZN6LibRaw12unpack_thumbEv(ptr noundef nonnull align 8 dereferenceable(767680) %0)
  %31 = getelementptr inbounds nuw i8, ptr %0, i64 5496
  %32 = load i32, ptr %31, align 8, !tbaa !84
  %33 = and i32 %32, -268435457
  store i32 %33, ptr %31, align 8, !tbaa !84
  br label %34

34:                                               ; preds = %2, %4, %9
  %.0 = phi i32 [ %30, %9 ], [ -9, %4 ], [ -9, %2 ]
  ret i32 %.0
}